ccopy_reg
_reconstructor
p1
(cargparse
Namespace
p2
c__builtin__
object
p3
NtRp4
(dp5
S'init_from'
p6
NsS'grad_clip'
p7
F5
sS'rnn_size'
p8
I128
sS'data_dir'
p9
S'data/tinyshakespeare'
p10
sS'vocab_size'
p11
I116
sS'learning_rate'
p12
F0.002
sS'num_layers'
p13
I2
sS'seq_length'
p14
I50
sS'batch_size'
p15
I50
sS'decay_rate'
p16
F0.96999999999999997
sS'num_epochs'
p17
I50
sS'log_dir'
p18
S'logs'
p19
sS'save_dir'
p20
S'save'
p21
sS'input_keep_prob'
p22
F1
sS'model'
p23
S'lstm'
p24
sS'save_every'
p25
I1000
sS'output_keep_prob'
p26
F1
sb.